; Function Attrs: nounwind uwtable
define i32 @avio_printf(ptr noundef %0, ptr noundef %1, ...) local_unnamed_addr #3 {
  %3 = alloca %struct.AVBPrint, align 8
  %4 = alloca [1 x %struct.__va_list_tag], align 16
  call void @llvm.lifetime.start.p0(i64 24, ptr nonnull %4) #14
  call void @llvm.va_start.p0(ptr nonnull %4)
  call void @llvm.lifetime.start.p0(i64 1024, ptr nonnull %3) #14
  call void @av_bprint_init(ptr noundef nonnull %3, i32 noundef 0, i32 noundef 2147483647) #14
  call void @av_vbprintf(ptr noundef nonnull %3, ptr noundef %1, ptr noundef nonnull %4) #14
  %5 = getelementptr inbounds nuw i8, ptr %3, i64 8
  %.val.i = load i32, ptr %5, align 8, !tbaa !58
  %6 = getelementptr inbounds nuw i8, ptr %3, i64 12
  %.val4.i = load i32, ptr %6, align 4, !tbaa !60
  %.not.i = icmp ult i32 %.val.i, %.val4.i
  br i1 %.not.i, label %10, label %7

7:                                                ; preds = %2
  %8 = call i32 @av_bprint_finalize(ptr noundef nonnull %3, ptr noundef null) #14
  %9 = getelementptr inbounds nuw i8, ptr %0, i64 84
  store i32 -12, ptr %9, align 4, !tbaa !34
  br label %avio_vprintf.exit

10:                                               ; preds = %2
  %11 = load ptr, ptr %3, align 8, !tbaa !72
  call void @avio_write(ptr noundef %0, ptr noundef %11, i32 noundef %.val.i)
  %12 = call i32 @av_bprint_finalize(ptr noundef nonnull %3, ptr noundef null) #14
  %13 = load i32, ptr %5, align 8, !tbaa !58
  br label %avio_vprintf.exit

avio_vprintf.exit:                                ; preds = %7, %10
  %.0.i = phi i32 [ %13, %10 ], [ -12, %7 ]
  call void @llvm.lifetime.end.p0(i64 1024, ptr nonnull %3) #14
  call void @llvm.va_end.p0(ptr nonnull %4)
  call void @llvm.lifetime.end.p0(i64 24, ptr nonnull %4) #14
  ret i32 %.0.i
}